; Function Attrs: mustprogress uwtable
define hidden void @_ZN5osgeo4proj3crs11VerticalCRSC2ERKS2_(ptr noundef nonnull align 8 dereferenceable(16) %0, ptr nocapture noundef readonly %1, ptr nocapture noundef nonnull readonly align 8 dereferenceable(16) %2) unnamed_addr #6 align 2 personality ptr @__gxx_personality_v0 {
  store ptr getelementptr inbounds inrange(-16, 24) ({ [5 x ptr] }, ptr @_ZTVN5osgeo4proj2io21IPROJStringExportableE, i64 0, i32 0, i64 2), ptr %0, align 8
  %4 = load ptr, ptr %1, align 8
  store ptr %4, ptr %0, align 8
  %5 = getelementptr inbounds i8, ptr %1, i64 8
  %6 = load ptr, ptr %5, align 8
  %7 = getelementptr i8, ptr %4, i64 -24
  %8 = load i64, ptr %7, align 8
  %9 = getelementptr inbounds i8, ptr %0, i64 %8
  store ptr %6, ptr %9, align 8
  %10 = getelementptr inbounds i8, ptr %1, i64 16
  %11 = load ptr, ptr %10, align 8
  %12 = load ptr, ptr %0, align 8
  %13 = getelementptr i8, ptr %12, i64 -24
  %14 = load i64, ptr %13, align 8
  %15 = getelementptr i8, ptr %0, i64 %14
  %16 = getelementptr i8, ptr %15, i64 16
  store ptr %11, ptr %16, align 8
  %17 = getelementptr inbounds i8, ptr %1, i64 24
  %18 = load ptr, ptr %17, align 8
  %19 = load ptr, ptr %0, align 8
  %20 = getelementptr i8, ptr %19, i64 -24
  %21 = load i64, ptr %20, align 8
  %22 = getelementptr i8, ptr %0, i64 %21
  %23 = getelementptr i8, ptr %22, i64 24
  store ptr %18, ptr %23, align 8
  %24 = getelementptr inbounds i8, ptr %1, i64 32
  %25 = load ptr, ptr %24, align 8
  %26 = load ptr, ptr %0, align 8
  %27 = getelementptr i8, ptr %26, i64 -24
  %28 = load i64, ptr %27, align 8
  %29 = getelementptr i8, ptr %0, i64 %28
  %30 = getelementptr i8, ptr %29, i64 48
  store ptr %25, ptr %30, align 8
  %31 = getelementptr inbounds i8, ptr %2, i64 8
  %32 = load ptr, ptr %31, align 8
  tail call void @llvm.experimental.noalias.scope.decl(metadata !602)
  %33 = invoke noalias noundef nonnull dereferenceable(48) ptr @_Znwm(i64 noundef 48) #38
          to label %.noexc unwind label %38

.noexc:                                           ; preds = %3
  invoke void @_ZN5osgeo4proj3crs11VerticalCRS7PrivateC2ERKS3_(ptr noundef nonnull align 8 dereferenceable(48) %33, ptr noundef nonnull align 8 dereferenceable(48) %32)
          to label %36 unwind label %34, !noalias !602

34:                                               ; preds = %.noexc
  %35 = landingpad { ptr, i32 }
          cleanup
  tail call void @_ZdlPv(ptr noundef nonnull %33) #36, !noalias !602
  br label %.body

36:                                               ; preds = %.noexc
  %37 = getelementptr inbounds i8, ptr %0, i64 8
  store ptr %33, ptr %37, align 8, !alias.scope !602
  ret void

38:                                               ; preds = %3
  %39 = landingpad { ptr, i32 }
          cleanup
  br label %.body

.body:                                            ; preds = %34, %38
  %eh.lpad-body = phi { ptr, i32 } [ %39, %38 ], [ %35, %34 ]
  tail call void @_ZN5osgeo4proj2io21IPROJStringExportableD2Ev(ptr noundef nonnull align 8 dereferenceable(8) %0) #37
  resume { ptr, i32 } %eh.lpad-body
}